; Function Attrs: nounwind uwtable
define hidden i32 @uv__udp_try_send(ptr noundef captures(none) %0, ptr noundef %1, i32 noundef %2, ptr noundef %3, i32 noundef %4) local_unnamed_addr #0 {
  %6 = alloca %union.uv__sockaddr, align 4
  %7 = alloca %struct.msghdr, align 8
  %8 = icmp eq i32 %2, 0
  br i1 %8, label %61, label %9

9:                                                ; preds = %5
  %10 = getelementptr inbounds nuw i8, ptr %0, i64 104
  %11 = load i64, ptr %10, align 8
  %.not = icmp eq i64 %11, 0
  br i1 %.not, label %12, label %61

12:                                               ; preds = %9
  %.not19 = icmp eq ptr %3, null
  br i1 %.not19, label %.split15, label %30

.split15:                                         ; preds = %12
  %13 = getelementptr inbounds nuw i8, ptr %0, i64 176
  %14 = load i32, ptr %13, align 8
  call void @llvm.lifetime.start.p0(i64 56, ptr nonnull %7) #10
  %15 = getelementptr inbounds nuw i8, ptr %7, i64 16
  call void @llvm.memset.p0.i64(ptr noundef nonnull align 8 dereferenceable(56) %7, i8 0, i64 56, i1 false)
  store ptr %1, ptr %15, align 8
  %16 = zext i32 %2 to i64
  %17 = getelementptr inbounds nuw i8, ptr %7, i64 24
  store i64 %16, ptr %17, align 8
  br label %18

18:                                               ; preds = %22, %.split15
  %19 = call i64 @sendmsg(i32 noundef %14, ptr noundef nonnull %7, i32 noundef 0) #10
  %20 = trunc i64 %19 to i32
  %21 = icmp eq i32 %20, -1
  br i1 %21, label %22, label %.critedge.i

22:                                               ; preds = %18
  %23 = tail call ptr @__errno_location() #11
  %24 = load i32, ptr %23, align 4
  %25 = icmp eq i32 %24, 4
  br i1 %25, label %18, label %.critedge.thread.i

.critedge.i:                                      ; preds = %18
  %26 = icmp slt i32 %20, 0
  br i1 %26, label %.critedge..critedge.thread_crit_edge.i, label %uv__udp_sendmsg1.exit

.critedge..critedge.thread_crit_edge.i:           ; preds = %.critedge.i
  %.pre.i = tail call ptr @__errno_location() #11
  %.pr.i = load i32, ptr %.pre.i, align 4
  br label %.critedge.thread.i

.critedge.thread.i:                               ; preds = %22, %.critedge..critedge.thread_crit_edge.i
  %27 = phi i32 [ %.pr.i, %.critedge..critedge.thread_crit_edge.i ], [ %24, %22 ]
  %28 = sub nsw i32 0, %27
  switch i32 %27, label %uv__udp_sendmsg1.exit [
    i32 11, label %29
    i32 105, label %29
  ]

29:                                               ; preds = %.critedge.thread.i, %.critedge.thread.i
  br label %uv__udp_sendmsg1.exit

uv__udp_sendmsg1.exit:                            ; preds = %.critedge.i, %.critedge.thread.i, %29
  %.08.i = phi i32 [ -11, %29 ], [ %28, %.critedge.thread.i ], [ 1, %.critedge.i ]
  call void @llvm.lifetime.end.p0(i64 56, ptr nonnull %7) #10
  br label %56

30:                                               ; preds = %12
  %31 = load i16, ptr %3, align 2
  call void @llvm.lifetime.start.p0(i64 28, ptr nonnull %6) #10
  %32 = getelementptr inbounds nuw i8, ptr %0, i64 176
  %33 = load i32, ptr %32, align 8
  %.not.i = icmp eq i32 %33, -1
  br i1 %.not.i, label %34, label %uv__udp_maybe_deferred_bind.exit.thread

34:                                               ; preds = %30
  switch i16 %31, label %36 [
    i16 2, label %.split13.i
    i16 10, label %.split.i
  ]

.split13.i:                                       ; preds = %34
  call void @llvm.memset.p0.i64(ptr noundef nonnull align 4 dereferenceable(16) %6, i8 0, i64 16, i1 false)
  store i16 2, ptr %6, align 4
  br label %.sink.split.i

.split.i:                                         ; preds = %34
  call void @llvm.memset.p0.i64(ptr noundef nonnull align 4 dereferenceable(28) %6, i8 0, i64 28, i1 false)
  store i16 10, ptr %6, align 4
  %35 = getelementptr inbounds nuw i8, ptr %6, i64 8
  call void @llvm.memcpy.p0.p0.i64(ptr noundef nonnull align 4 dereferenceable(16) %35, ptr noundef nonnull align 4 dereferenceable(16) @in6addr_any, i64 16, i1 false)
  br label %.sink.split.i

36:                                               ; preds = %34
  tail call void @abort() #12
  unreachable

.sink.split.i:                                    ; preds = %.split13.i, %.split.i
  %.sink.i = phi i32 [ 16, %.split13.i ], [ 28, %.split.i ]
  %37 = zext nneg i16 %31 to i32
  %38 = tail call i32 @uv__socket(i32 noundef %37, i32 noundef 2, i32 noundef 0) #10
  %39 = icmp slt i32 %38, 0
  br i1 %39, label %uv__udp_maybe_deferred_bind.exit.thread25, label %40

40:                                               ; preds = %.sink.split.i
  store i32 %38, ptr %32, align 8
  %41 = call i32 @bind(i32 noundef %38, ptr nonnull %6, i32 noundef %.sink.i) #10
  %.not48.i = icmp eq i32 %41, 0
  br i1 %.not48.i, label %._crit_edge.i, label %42

42:                                               ; preds = %40
  %43 = tail call ptr @__errno_location() #11
  %44 = load i32, ptr %43, align 4
  %45 = icmp eq i32 %44, 97
  br i1 %45, label %uv__udp_maybe_deferred_bind.exit.thread25, label %uv__udp_maybe_deferred_bind.exit

._crit_edge.i:                                    ; preds = %40
  %46 = load i16, ptr %6, align 4
  %47 = icmp eq i16 %46, 10
  %48 = getelementptr inbounds nuw i8, ptr %0, i64 88
  %49 = load i32, ptr %48, align 8
  %50 = or i32 %49, 4194304
  %51 = select i1 %47, i32 %50, i32 %49
  %52 = or i32 %51, 8192
  store i32 %52, ptr %48, align 8
  br label %uv__udp_maybe_deferred_bind.exit.thread

uv__udp_maybe_deferred_bind.exit.thread:          ; preds = %30, %._crit_edge.i
  call void @llvm.lifetime.end.p0(i64 28, ptr nonnull %6) #10
  br label %.split

uv__udp_maybe_deferred_bind.exit.thread25:        ; preds = %.sink.split.i, %42
  %.0.i.ph = phi i32 [ %38, %.sink.split.i ], [ -22, %42 ]
  call void @llvm.lifetime.end.p0(i64 28, ptr nonnull %6) #10
  br label %61

uv__udp_maybe_deferred_bind.exit:                 ; preds = %42
  %53 = sub nsw i32 0, %44
  call void @llvm.lifetime.end.p0(i64 28, ptr nonnull %6) #10
  %.not20 = icmp eq i32 %44, 0
  br i1 %.not20, label %.split, label %61

.split:                                           ; preds = %uv__udp_maybe_deferred_bind.exit.thread, %uv__udp_maybe_deferred_bind.exit
  %54 = load i32, ptr %32, align 8
  %55 = call fastcc i32 @uv__udp_sendmsg1(i32 noundef %54, ptr noundef %1, i32 noundef %2, ptr noundef nonnull %3)
  br label %56

56:                                               ; preds = %uv__udp_sendmsg1.exit, %.split
  %phi.call = phi i32 [ %55, %.split ], [ %.08.i, %uv__udp_sendmsg1.exit ]
  %57 = icmp sgt i32 %phi.call, 0
  br i1 %57, label %58, label %61

58:                                               ; preds = %56
  %59 = call i64 @uv__count_bufs(ptr noundef %1, i32 noundef %2) #10
  %60 = trunc i64 %59 to i32
  br label %61

61:                                               ; preds = %uv__udp_maybe_deferred_bind.exit.thread25, %56, %uv__udp_maybe_deferred_bind.exit, %9, %5, %58
  %.0 = phi i32 [ %60, %58 ], [ -22, %5 ], [ -11, %9 ], [ %53, %uv__udp_maybe_deferred_bind.exit ], [ %phi.call, %56 ], [ %.0.i.ph, %uv__udp_maybe_deferred_bind.exit.thread25 ]
  ret i32 %.0
}